target datalayout = "e-m:e-p270:32:32-p271:32:32-p272:64:64-i64:64-i128:128-f80:128-n8:16:32:64-S128"
target triple = "x86_64-pc-linux-gnu"

; Function Attrs: mustprogress nounwind uwtable
define dso_local noundef zeroext i1 @_ZN4llvm3sys17RunningOnValgrindEv() #0 {
  %1 = alloca [6 x i64], align 16
  %2 = alloca i64, align 8
  %3 = alloca i64, align 8
  %4 = getelementptr inbounds [6 x i64], ptr %1, i64 0, i64 0
  store volatile i64 4097, ptr %4, align 16
  %5 = getelementptr inbounds [6 x i64], ptr %1, i64 0, i64 1
  store volatile i64 0, ptr %5, align 8
  %6 = getelementptr inbounds [6 x i64], ptr %1, i64 0, i64 2
  store volatile i64 0, ptr %6, align 16
  %7 = getelementptr inbounds [6 x i64], ptr %1, i64 0, i64 3
  store volatile i64 0, ptr %7, align 8
  %8 = getelementptr inbounds [6 x i64], ptr %1, i64 0, i64 4
  store volatile i64 0, ptr %8, align 16
  %9 = getelementptr inbounds [6 x i64], ptr %1, i64 0, i64 5
  store volatile i64 0, ptr %9, align 8
  %10 = getelementptr inbounds [6 x i64], ptr %1, i64 0, i64 0
  %11 = call i64 asm sideeffect "rolq $$3,  %rdi ; rolq $$13, %rdi\0A\09rolq $$61, %rdi ; rolq $$51, %rdi\0A\09xchgq %rbx,%rbx", "={dx},{ax},0,~{cc},~{memory},~{dirflag},~{fpsr},~{flags}"(ptr %10, i64 0) #1, !srcloc !4
  store volatile i64 %11, ptr %2, align 8
  %12 = load volatile i64, ptr %2, align 8
  store i64 %12, ptr %3, align 8
  %13 = load i64, ptr %3, align 8
  %14 = trunc i64 %13 to i32
  %15 = icmp ne i32 %14, 0
  ret i1 %15
}

; Function Attrs: mustprogress nounwind uwtable
define dso_local void @_ZN4llvm3sys27ValgrindDiscardTranslationsEPKvm(ptr noundef %0, i64 noundef %1) #0 {
  %3 = alloca ptr, align 8
  %4 = alloca i64, align 8
  %5 = alloca [6 x i64], align 16
  %6 = alloca i64, align 8
  %7 = alloca i64, align 8
  store ptr %0, ptr %3, align 8
  store i64 %1, ptr %4, align 8
  br label %8

8:                                                ; preds = %2
  %9 = getelementptr inbounds [6 x i64], ptr %5, i64 0, i64 0
  store volatile i64 4098, ptr %9, align 16
  %10 = load ptr, ptr %3, align 8
  %11 = ptrtoint ptr %10 to i64
  %12 = getelementptr inbounds [6 x i64], ptr %5, i64 0, i64 1
  store volatile i64 %11, ptr %12, align 8
  %13 = load i64, ptr %4, align 8
  %14 = getelementptr inbounds [6 x i64], ptr %5, i64 0, i64 2
  store volatile i64 %13, ptr %14, align 16
  %15 = getelementptr inbounds [6 x i64], ptr %5, i64 0, i64 3
  store volatile i64 0, ptr %15, align 8
  %16 = getelementptr inbounds [6 x i64], ptr %5, i64 0, i64 4
  store volatile i64 0, ptr %16, align 16
  %17 = getelementptr inbounds [6 x i64], ptr %5, i64 0, i64 5
  store volatile i64 0, ptr %17, align 8
  %18 = getelementptr inbounds [6 x i64], ptr %5, i64 0, i64 0
  %19 = call i64 asm sideeffect "rolq $$3,  %rdi ; rolq $$13, %rdi\0A\09rolq $$61, %rdi ; rolq $$51, %rdi\0A\09xchgq %rbx,%rbx", "={dx},{ax},0,~{cc},~{memory},~{dirflag},~{fpsr},~{flags}"(ptr %18, i64 0) #1, !srcloc !5
  store volatile i64 %19, ptr %6, align 8
  %20 = load volatile i64, ptr %6, align 8
  store i64 %20, ptr %7, align 8
  br label %21

21:                                               ; preds = %8
  ret void
}


!llvm.module.flags = !{!0, !1, !2, !3}

!0 = !{i32 1, !"wchar_size", i32 4}
!1 = !{i32 8, !"PIC Level", i32 2}
!2 = !{i32 7, !"uwtable", i32 2}
!3 = !{i32 7, !"frame-pointer", i32 2}
!4 = !{i64 2148117481, i64 2148117517, i64 2148117585}
!5 = !{i64 2148119232, i64 2148119268, i64 2148119336}
