; ModuleID = 'bench/llvm/original/Valgrind.cpp.ll'
source_filename = "bench/llvm/original/Valgrind.cpp.ll"
target datalayout = "e-m:e-p270:32:32-p271:32:32-p272:64:64-i64:64-i128:128-f80:128-n8:16:32:64-S128"
target triple = "x86_64-pc-linux-gnu"

; Function Attrs: mustprogress nounwind uwtable
define dso_local noundef zeroext i1 @_ZN4llvm3sys17RunningOnValgrindEv() local_unnamed_addr #0 {
  %1 = alloca [6 x i64], align 16
  %2 = alloca i64, align 8
  store volatile i64 4097, ptr %1, align 16
  %3 = getelementptr inbounds i8, ptr %1, i64 8
  store volatile i64 0, ptr %3, align 8
  %4 = getelementptr inbounds i8, ptr %1, i64 16
  store volatile i64 0, ptr %4, align 16
  %5 = getelementptr inbounds i8, ptr %1, i64 24
  store volatile i64 0, ptr %5, align 8
  %6 = getelementptr inbounds i8, ptr %1, i64 32
  store volatile i64 0, ptr %6, align 16
  %7 = getelementptr inbounds i8, ptr %1, i64 40
  store volatile i64 0, ptr %7, align 8
  %8 = call i64 asm sideeffect "rolq $$3,  %rdi ; rolq $$13, %rdi\0A\09rolq $$61, %rdi ; rolq $$51, %rdi\0A\09xchgq %rbx,%rbx", "={dx},{ax},0,~{cc},~{memory},~{dirflag},~{fpsr},~{flags}"(ptr nonnull %1, i64 0) #1, !srcloc !4
  store volatile i64 %8, ptr %2, align 8
  %.0..0..0..0. = load volatile i64, ptr %2, align 8
  %9 = and i64 %.0..0..0..0., 4294967295
  %10 = icmp ne i64 %9, 0
  ret i1 %10
}

; Function Attrs: mustprogress nounwind uwtable
define dso_local void @_ZN4llvm3sys27ValgrindDiscardTranslationsEPKvm(ptr noundef %0, i64 noundef %1) local_unnamed_addr #0 {
  %3 = alloca [6 x i64], align 16
  %4 = alloca i64, align 8
  store volatile i64 4098, ptr %3, align 16
  %5 = ptrtoint ptr %0 to i64
  %6 = getelementptr inbounds i8, ptr %3, i64 8
  store volatile i64 %5, ptr %6, align 8
  %7 = getelementptr inbounds i8, ptr %3, i64 16
  store volatile i64 %1, ptr %7, align 16
  %8 = getelementptr inbounds i8, ptr %3, i64 24
  store volatile i64 0, ptr %8, align 8
  %9 = getelementptr inbounds i8, ptr %3, i64 32
  store volatile i64 0, ptr %9, align 16
  %10 = getelementptr inbounds i8, ptr %3, i64 40
  store volatile i64 0, ptr %10, align 8
  %11 = call i64 asm sideeffect "rolq $$3,  %rdi ; rolq $$13, %rdi\0A\09rolq $$61, %rdi ; rolq $$51, %rdi\0A\09xchgq %rbx,%rbx", "={dx},{ax},0,~{cc},~{memory},~{dirflag},~{fpsr},~{flags}"(ptr nonnull %3, i64 0) #1, !srcloc !5
  store volatile i64 %11, ptr %4, align 8
  %.0..0..0..0. = load volatile i64, ptr %4, align 8
  ret void
}


!llvm.module.flags = !{!0, !1, !2, !3}

!0 = !{i32 1, !"wchar_size", i32 4}
!1 = !{i32 8, !"PIC Level", i32 2}
!2 = !{i32 7, !"uwtable", i32 2}
!3 = !{i32 7, !"frame-pointer", i32 2}
!4 = !{i64 2148117481, i64 2148117517, i64 2148117585}
!5 = !{i64 2148119232, i64 2148119268, i64 2148119336}
